target datalayout = "e-m:e-p270:32:32-p271:32:32-p272:64:64-i64:64-i128:128-f80:128-n8:16:32:64-S128"
target triple = "x86_64-pc-linux-gnu"

%struct.ident_t = type { i32, i32, i32, i32, ptr }
%struct.__loadu_ps = type { <4 x float> }

@1 = private unnamed_addr constant %struct.ident_t { i32 0, i32 514, i32 0, i32 22, ptr @0 }, align 8

; Function Attrs: alwaysinline mustprogress nounwind uwtable
define internal noundef nofpclass(nan inf) <4 x float> @_ZL10_mm_add_psDv4_fS_(<4 x float> noundef nofpclass(nan inf) %0, <4 x float> noundef nofpclass(nan inf) %1) #8 {
  %3 = alloca <4 x float>, align 16
  %4 = alloca <4 x float>, align 16
  store <4 x float> %0, ptr %3, align 16, !tbaa !58
  store <4 x float> %1, ptr %4, align 16, !tbaa !58
  %5 = load <4 x float>, ptr %3, align 16, !tbaa !58
  %6 = load <4 x float>, ptr %4, align 16, !tbaa !58
  %7 = fadd fast <4 x float> %5, %6
  ret <4 x float> %7
}

; Function Attrs: alwaysinline mustprogress nounwind uwtable
define internal noundef nofpclass(nan inf) <4 x float> @_ZL10_mm_mul_psDv4_fS_(<4 x float> noundef nofpclass(nan inf) %0, <4 x float> noundef nofpclass(nan inf) %1) #8 {
  %3 = alloca <4 x float>, align 16
  %4 = alloca <4 x float>, align 16
  store <4 x float> %0, ptr %3, align 16, !tbaa !58
  store <4 x float> %1, ptr %4, align 16, !tbaa !58
  %5 = load <4 x float>, ptr %3, align 16, !tbaa !58
  %6 = load <4 x float>, ptr %4, align 16, !tbaa !58
  %7 = fmul fast <4 x float> %5, %6
  ret <4 x float> %7
}

; Function Attrs: noinline noreturn nounwind uwtable
define linkonce_odr hidden void @__clang_call_terminate(ptr noundef %0) #9 comdat {
  %2 = call ptr @__cxa_begin_catch(ptr %0) #7
  call void @_ZSt9terminatev() #16
  unreachable
}

; Function Attrs: alwaysinline mustprogress nounwind uwtable
define internal void @_ZL12_mm_store_psPfDv4_f(ptr noundef %0, <4 x float> noundef nofpclass(nan inf) %1) #8 {
  %3 = alloca ptr, align 8
  %4 = alloca <4 x float>, align 16
  store ptr %0, ptr %3, align 8, !tbaa !31
  store <4 x float> %1, ptr %4, align 16, !tbaa !58
  %5 = load <4 x float>, ptr %4, align 16, !tbaa !58
  %6 = load ptr, ptr %3, align 8, !tbaa !31
  store <4 x float> %5, ptr %6, align 16, !tbaa !58
  ret void
}

; Function Attrs: alwaysinline mustprogress uwtable
define internal noundef nofpclass(nan inf) <4 x float> @_ZL17_mm_comp_fmadd_psRKDv4_fS1_S1_(ptr noundef nonnull align 16 dereferenceable(16) %0, ptr noundef nonnull align 16 dereferenceable(16) %1, ptr noundef nonnull align 16 dereferenceable(16) %2) #10 {
  %4 = alloca ptr, align 8
  %5 = alloca ptr, align 8
  %6 = alloca ptr, align 8
  store ptr %0, ptr %4, align 8, !tbaa !59
  store ptr %1, ptr %5, align 8, !tbaa !59
  store ptr %2, ptr %6, align 8, !tbaa !59
  %7 = load ptr, ptr %4, align 8, !tbaa !59
  %8 = load <4 x float>, ptr %7, align 16, !tbaa !58
  %9 = load ptr, ptr %5, align 8, !tbaa !59
  %10 = load <4 x float>, ptr %9, align 16, !tbaa !58
  %11 = call fast noundef nofpclass(nan inf) <4 x float> @_ZL10_mm_mul_psDv4_fS_(<4 x float> noundef nofpclass(nan inf) %8, <4 x float> noundef nofpclass(nan inf) %10)
  %12 = load ptr, ptr %6, align 8, !tbaa !59
  %13 = load <4 x float>, ptr %12, align 16, !tbaa !58
  %14 = call fast noundef nofpclass(nan inf) <4 x float> @_ZL10_mm_add_psDv4_fS_(<4 x float> noundef nofpclass(nan inf) %11, <4 x float> noundef nofpclass(nan inf) %13)
  ret <4 x float> %14
}

; Function Attrs: alwaysinline mustprogress nounwind uwtable
define internal noundef nofpclass(nan inf) <4 x float> @_ZL12_mm_loadu_psPKf(ptr noundef %0) #8 {
  %2 = alloca ptr, align 8
  store ptr %0, ptr %2, align 8, !tbaa !31
  %3 = load ptr, ptr %2, align 8, !tbaa !31
  %4 = getelementptr inbounds nuw %struct.__loadu_ps, ptr %3, i32 0, i32 0
  %5 = load <4 x float>, ptr %4, align 1, !tbaa !58
  ret <4 x float> %5
}

; Function Attrs: alwaysinline mustprogress nounwind uwtable
define internal noundef nofpclass(nan inf) <4 x float> @_ZL11_mm_load_psPKf(ptr noundef %0) #8 {
  %2 = alloca ptr, align 8
  store ptr %0, ptr %2, align 8, !tbaa !31
  %3 = load ptr, ptr %2, align 8, !tbaa !31
  %4 = load <4 x float>, ptr %3, align 16, !tbaa !58
  ret <4 x float> %4
}

; Function Attrs: alwaysinline norecurse nounwind uwtable
define internal void @_ZNK4ncnn9Scale_x8615forward_inplaceERSt6vectorINS_3MatESaIS2_EERKNS_6OptionE.omp_outlined(ptr noalias noundef %0, ptr noalias noundef %1, ptr noundef nonnull align 4 dereferenceable(4) %2, ptr noundef nonnull align 4 dereferenceable(4) %3, ptr noundef nonnull align 8 dereferenceable(8) %4, ptr noundef nonnull align 8 dereferenceable(8) %5, ptr noundef nonnull align 8 dereferenceable(8) %6) #6 personality ptr @__gxx_personality_v0 {
  %8 = alloca ptr, align 8
  %9 = alloca ptr, align 8
  %10 = alloca ptr, align 8
  %11 = alloca ptr, align 8
  %12 = alloca ptr, align 8
  %13 = alloca ptr, align 8
  %14 = alloca ptr, align 8
  %15 = alloca i32, align 4
  %16 = alloca i32, align 4
  %17 = alloca i32, align 4
  %18 = alloca i32, align 4
  %19 = alloca i32, align 4
  %20 = alloca i32, align 4
  %21 = alloca i32, align 4
  %22 = alloca i32, align 4
  %23 = alloca i32, align 4
  %24 = alloca i32, align 4
  %25 = alloca <4 x float>, align 16
  %26 = alloca <4 x float>, align 16
  %27 = alloca <4 x float>, align 16
  store ptr %0, ptr %8, align 8, !tbaa !54
  store ptr %1, ptr %9, align 8, !tbaa !54
  store ptr %2, ptr %10, align 8, !tbaa !54
  store ptr %3, ptr %11, align 8, !tbaa !54
  store ptr %4, ptr %12, align 8, !tbaa !55
  store ptr %5, ptr %13, align 8, !tbaa !55
  store ptr %6, ptr %14, align 8, !tbaa !55
  %28 = load ptr, ptr %10, align 8, !tbaa !54
  %29 = load ptr, ptr %11, align 8, !tbaa !54
  %30 = load ptr, ptr %12, align 8, !tbaa !55
  %31 = load ptr, ptr %13, align 8, !tbaa !55
  %32 = load ptr, ptr %14, align 8, !tbaa !55
  call void @llvm.lifetime.start.p0(i64 4, ptr %15) #7
  call void @llvm.lifetime.start.p0(i64 4, ptr %16) #7
  %33 = load i32, ptr %28, align 4, !tbaa !25
  store i32 %33, ptr %16, align 4, !tbaa !25
  call void @llvm.lifetime.start.p0(i64 4, ptr %17) #7
  %34 = load i32, ptr %16, align 4, !tbaa !25
  %35 = sub nsw i32 %34, 0
  %36 = sdiv i32 %35, 1
  %37 = sub nsw i32 %36, 1
  store i32 %37, ptr %17, align 4, !tbaa !25
  call void @llvm.lifetime.start.p0(i64 4, ptr %18) #7
  store i32 0, ptr %18, align 4, !tbaa !25
  call void @llvm.lifetime.end.p0(i64 4, ptr %18) #7
  %38 = load i32, ptr %16, align 4, !tbaa !25
  %39 = icmp slt i32 0, %38
  br i1 %39, label %40, label %100

40:                                               ; preds = %7
  call void @llvm.lifetime.start.p0(i64 4, ptr %19) #7
  store i32 0, ptr %19, align 4, !tbaa !25
  call void @llvm.lifetime.start.p0(i64 4, ptr %20) #7
  %41 = load i32, ptr %17, align 4, !tbaa !25
  store i32 %41, ptr %20, align 4, !tbaa !25
  call void @llvm.lifetime.start.p0(i64 4, ptr %21) #7
  store i32 1, ptr %21, align 4, !tbaa !25
  call void @llvm.lifetime.start.p0(i64 4, ptr %22) #7
  store i32 0, ptr %22, align 4, !tbaa !25
  call void @llvm.lifetime.start.p0(i64 4, ptr %23) #7
  %42 = load ptr, ptr %8, align 8
  %43 = load i32, ptr %42, align 4, !tbaa !25
  call void @__kmpc_for_static_init_4(ptr @1, i32 %43, i32 34, ptr %22, ptr %19, ptr %20, ptr %21, i32 1, i32 1)
  %44 = load i32, ptr %20, align 4, !tbaa !25
  %45 = load i32, ptr %17, align 4, !tbaa !25
  %46 = icmp sgt i32 %44, %45
  br i1 %46, label %47, label %49

47:                                               ; preds = %40
  %48 = load i32, ptr %17, align 4, !tbaa !25
  br label %51

49:                                               ; preds = %40
  %50 = load i32, ptr %20, align 4, !tbaa !25
  br label %51

51:                                               ; preds = %49, %47
  %52 = phi i32 [ %48, %47 ], [ %50, %49 ]
  store i32 %52, ptr %20, align 4, !tbaa !25
  %53 = load i32, ptr %19, align 4, !tbaa !25
  store i32 %53, ptr %15, align 4, !tbaa !25
  br label %54

54:                                               ; preds = %93, %51
  %55 = load i32, ptr %15, align 4, !tbaa !25
  %56 = load i32, ptr %20, align 4, !tbaa !25
  %57 = icmp sle i32 %55, %56
  br i1 %57, label %59, label %58

58:                                               ; preds = %54
  br label %96

59:                                               ; preds = %54
  %60 = load i32, ptr %15, align 4, !tbaa !25
  %61 = mul nsw i32 %60, 1
  %62 = add nsw i32 0, %61
  store i32 %62, ptr %23, align 4, !tbaa !25
  call void @llvm.lifetime.start.p0(i64 4, ptr %24) #7
  %63 = load i32, ptr %29, align 4, !tbaa !25
  %64 = load i32, ptr %23, align 4, !tbaa !25
  %65 = mul nsw i32 %64, 4
  %66 = add nsw i32 %63, %65
  store i32 %66, ptr %24, align 4, !tbaa !25
  call void @llvm.lifetime.start.p0(i64 16, ptr %25) #7
  %67 = load ptr, ptr %30, align 8, !tbaa !31
  %68 = load i32, ptr %24, align 4, !tbaa !25
  %69 = sext i32 %68 to i64
  %70 = getelementptr inbounds float, ptr %67, i64 %69
  %71 = invoke noundef nofpclass(nan inf) <4 x float> @_ZL11_mm_load_psPKf(ptr noundef %70)
          to label %72 unwind label %101

72:                                               ; preds = %59
  store <4 x float> %71, ptr %25, align 16, !tbaa !58
  call void @llvm.lifetime.start.p0(i64 16, ptr %26) #7
  %73 = load ptr, ptr %31, align 8, !tbaa !31
  %74 = load i32, ptr %24, align 4, !tbaa !25
  %75 = sext i32 %74 to i64
  %76 = getelementptr inbounds float, ptr %73, i64 %75
  %77 = invoke noundef nofpclass(nan inf) <4 x float> @_ZL11_mm_load_psPKf(ptr noundef %76)
          to label %78 unwind label %101

78:                                               ; preds = %72
  store <4 x float> %77, ptr %26, align 16, !tbaa !58
  call void @llvm.lifetime.start.p0(i64 16, ptr %27) #7
  %79 = load ptr, ptr %32, align 8, !tbaa !31
  %80 = load i32, ptr %24, align 4, !tbaa !25
  %81 = sext i32 %80 to i64
  %82 = getelementptr inbounds float, ptr %79, i64 %81
  %83 = invoke noundef nofpclass(nan inf) <4 x float> @_ZL12_mm_loadu_psPKf(ptr noundef %82)
          to label %84 unwind label %101

84:                                               ; preds = %78
  store <4 x float> %83, ptr %27, align 16, !tbaa !58
  %85 = load ptr, ptr %30, align 8, !tbaa !31
  %86 = load i32, ptr %24, align 4, !tbaa !25
  %87 = sext i32 %86 to i64
  %88 = getelementptr inbounds float, ptr %85, i64 %87
  %89 = invoke noundef nofpclass(nan inf) <4 x float> @_ZL17_mm_comp_fmadd_psRKDv4_fS1_S1_(ptr noundef nonnull align 16 dereferenceable(16) %25, ptr noundef nonnull align 16 dereferenceable(16) %26, ptr noundef nonnull align 16 dereferenceable(16) %27)
          to label %90 unwind label %101

90:                                               ; preds = %84
  invoke void @_ZL12_mm_store_psPfDv4_f(ptr noundef %88, <4 x float> noundef nofpclass(nan inf) %89)
          to label %91 unwind label %101

91:                                               ; preds = %90
  call void @llvm.lifetime.end.p0(i64 16, ptr %27) #7
  call void @llvm.lifetime.end.p0(i64 16, ptr %26) #7
  call void @llvm.lifetime.end.p0(i64 16, ptr %25) #7
  call void @llvm.lifetime.end.p0(i64 4, ptr %24) #7
  br label %92

92:                                               ; preds = %91
  br label %93

93:                                               ; preds = %92
  %94 = load i32, ptr %15, align 4, !tbaa !25
  %95 = add nsw i32 %94, 1
  store i32 %95, ptr %15, align 4, !tbaa !25
  br label %54

96:                                               ; preds = %58
  br label %97

97:                                               ; preds = %96
  %98 = load ptr, ptr %8, align 8
  %99 = load i32, ptr %98, align 4, !tbaa !25
  call void @__kmpc_for_static_fini(ptr @1, i32 %99)
  call void @llvm.lifetime.end.p0(i64 4, ptr %23) #7
  call void @llvm.lifetime.end.p0(i64 4, ptr %22) #7
  call void @llvm.lifetime.end.p0(i64 4, ptr %21) #7
  call void @llvm.lifetime.end.p0(i64 4, ptr %20) #7
  call void @llvm.lifetime.end.p0(i64 4, ptr %19) #7
  br label %100

100:                                              ; preds = %97, %7
  call void @llvm.lifetime.end.p0(i64 4, ptr %17) #7
  call void @llvm.lifetime.end.p0(i64 4, ptr %16) #7
  call void @llvm.lifetime.end.p0(i64 4, ptr %15) #7
  ret void

101:                                              ; preds = %90, %84, %78, %72, %59
  %102 = landingpad { ptr, i32 }
          catch ptr null
  %103 = extractvalue { ptr, i32 } %102, 0
  call void @__clang_call_terminate(ptr %103) #16
  unreachable
}